target datalayout = "e-m:e-p270:32:32-p271:32:32-p272:64:64-i64:64-i128:128-f80:128-n8:16:32:64-S128"
target triple = "x86_64-pc-linux-gnu"

%"class.duckdb::Pipeline" = type { %"class.duckdb::enable_shared_from_this.8", ptr, i8, %"struct.std::atomic.6", %"class.duckdb::optional_ptr", %"class.duckdb::vector.12", %"class.duckdb::optional_ptr", %"class.duckdb::unique_ptr", %"class.duckdb::vector.20", %"class.duckdb::vector.20", i64, %"class.std::mutex", %"class.std::multiset" }
%"class.duckdb::enable_shared_from_this.8" = type { %"class.duckdb::weak_ptr.9" }
%"class.duckdb::weak_ptr.9" = type { %"class.std::weak_ptr.10" }
%"class.std::weak_ptr.10" = type { %"class.std::__weak_ptr.11" }
%"class.std::__weak_ptr.11" = type { ptr, %"class.std::__weak_count" }
%"class.std::__weak_count" = type { ptr }
%"struct.std::atomic.6" = type { %"struct.std::__atomic_base.7" }
%"struct.std::__atomic_base.7" = type { i8 }
%"class.duckdb::vector.12" = type { %"class.std::vector.13" }
%"class.std::vector.13" = type { %"struct.std::_Vector_base.14" }
%"struct.std::_Vector_base.14" = type { %"struct.std::_Vector_base<std::reference_wrapper<duckdb::PhysicalOperator>, std::allocator<std::reference_wrapper<duckdb::PhysicalOperator>>>::_Vector_impl" }
%"struct.std::_Vector_base<std::reference_wrapper<duckdb::PhysicalOperator>, std::allocator<std::reference_wrapper<duckdb::PhysicalOperator>>>::_Vector_impl" = type { %"struct.std::_Vector_base<std::reference_wrapper<duckdb::PhysicalOperator>, std::allocator<std::reference_wrapper<duckdb::PhysicalOperator>>>::_Vector_impl_data" }
%"struct.std::_Vector_base<std::reference_wrapper<duckdb::PhysicalOperator>, std::allocator<std::reference_wrapper<duckdb::PhysicalOperator>>>::_Vector_impl_data" = type { ptr, ptr, ptr }
%"class.duckdb::optional_ptr" = type { ptr }
%"class.duckdb::unique_ptr" = type { %"class.std::unique_ptr" }
%"class.std::unique_ptr" = type { %"struct.std::__uniq_ptr_data" }
%"struct.std::__uniq_ptr_data" = type { %"class.std::__uniq_ptr_impl" }
%"class.std::__uniq_ptr_impl" = type { %"class.std::tuple" }
%"class.std::tuple" = type { %"struct.std::_Tuple_impl" }
%"struct.std::_Tuple_impl" = type { %"struct.std::_Head_base.19" }
%"struct.std::_Head_base.19" = type { ptr }
%"class.duckdb::vector.20" = type { %"class.std::vector.21" }
%"class.std::vector.21" = type { %"struct.std::_Vector_base.22" }
%"struct.std::_Vector_base.22" = type { %"struct.std::_Vector_base<duckdb::weak_ptr<duckdb::Pipeline>, std::allocator<duckdb::weak_ptr<duckdb::Pipeline>>>::_Vector_impl" }
%"struct.std::_Vector_base<duckdb::weak_ptr<duckdb::Pipeline>, std::allocator<duckdb::weak_ptr<duckdb::Pipeline>>>::_Vector_impl" = type { %"struct.std::_Vector_base<duckdb::weak_ptr<duckdb::Pipeline>, std::allocator<duckdb::weak_ptr<duckdb::Pipeline>>>::_Vector_impl_data" }
%"struct.std::_Vector_base<duckdb::weak_ptr<duckdb::Pipeline>, std::allocator<duckdb::weak_ptr<duckdb::Pipeline>>>::_Vector_impl_data" = type { ptr, ptr, ptr }
%"class.std::mutex" = type { %"class.std::__mutex_base" }
%"class.std::__mutex_base" = type { %union.pthread_mutex_t }
%union.pthread_mutex_t = type { %struct.__pthread_mutex_s }
%struct.__pthread_mutex_s = type { i32, i32, i32, i32, i32, i16, i16, %struct.__pthread_internal_list }
%struct.__pthread_internal_list = type { ptr, ptr }
%"class.std::multiset" = type { %"class.std::_Rb_tree" }
%"class.std::_Rb_tree" = type { %"struct.std::_Rb_tree<unsigned long, unsigned long, std::_Identity<unsigned long>, std::less<unsigned long>>::_Rb_tree_impl" }
%"struct.std::_Rb_tree<unsigned long, unsigned long, std::_Identity<unsigned long>, std::less<unsigned long>>::_Rb_tree_impl" = type { [8 x i8], %"struct.std::_Rb_tree_header" }
%"struct.std::_Rb_tree_header" = type { %"struct.std::_Rb_tree_node_base", i64 }
%"struct.std::_Rb_tree_node_base" = type { i32, ptr, ptr, ptr }
%"class.duckdb::MetaPipeline" = type { %"class.duckdb::enable_shared_from_this.87", ptr, ptr, %"class.duckdb::optional_ptr.91", %"class.duckdb::optional_ptr", i8, i8, %"class.duckdb::vector.38", %"class.std::unordered_map.92", %"class.duckdb::vector.108", i64, %"class.std::unordered_set", %"class.std::unordered_map.127" }
%"class.duckdb::enable_shared_from_this.87" = type { %"class.duckdb::weak_ptr.88" }
%"class.duckdb::weak_ptr.88" = type { %"class.std::weak_ptr.89" }
%"class.std::weak_ptr.89" = type { %"class.std::__weak_ptr.90" }
%"class.std::__weak_ptr.90" = type { ptr, %"class.std::__weak_count" }
%"class.duckdb::optional_ptr.91" = type { ptr }
%"class.duckdb::vector.38" = type { %"class.std::vector.39" }
%"class.std::vector.39" = type { %"struct.std::_Vector_base.40" }
%"struct.std::_Vector_base.40" = type { %"struct.std::_Vector_base<duckdb::shared_ptr<duckdb::Pipeline>, std::allocator<duckdb::shared_ptr<duckdb::Pipeline>>>::_Vector_impl" }
%"struct.std::_Vector_base<duckdb::shared_ptr<duckdb::Pipeline>, std::allocator<duckdb::shared_ptr<duckdb::Pipeline>>>::_Vector_impl" = type { %"struct.std::_Vector_base<duckdb::shared_ptr<duckdb::Pipeline>, std::allocator<duckdb::shared_ptr<duckdb::Pipeline>>>::_Vector_impl_data" }
%"struct.std::_Vector_base<duckdb::shared_ptr<duckdb::Pipeline>, std::allocator<duckdb::shared_ptr<duckdb::Pipeline>>>::_Vector_impl_data" = type { ptr, ptr, ptr }
%"class.std::unordered_map.92" = type { %"class.std::_Hashtable.93" }
%"class.std::_Hashtable.93" = type { ptr, i64, %"struct.std::__detail::_Hash_node_base", i64, %"struct.std::__detail::_Prime_rehash_policy", ptr }
%"struct.std::__detail::_Hash_node_base" = type { ptr }
%"struct.std::__detail::_Prime_rehash_policy" = type { float, i64 }
%"class.duckdb::vector.108" = type { %"class.std::vector.109" }
%"class.std::vector.109" = type { %"struct.std::_Vector_base.110" }
%"struct.std::_Vector_base.110" = type { %"struct.std::_Vector_base<duckdb::shared_ptr<duckdb::MetaPipeline>, std::allocator<duckdb::shared_ptr<duckdb::MetaPipeline>>>::_Vector_impl" }
%"struct.std::_Vector_base<duckdb::shared_ptr<duckdb::MetaPipeline>, std::allocator<duckdb::shared_ptr<duckdb::MetaPipeline>>>::_Vector_impl" = type { %"struct.std::_Vector_base<duckdb::shared_ptr<duckdb::MetaPipeline>, std::allocator<duckdb::shared_ptr<duckdb::MetaPipeline>>>::_Vector_impl_data" }
%"struct.std::_Vector_base<duckdb::shared_ptr<duckdb::MetaPipeline>, std::allocator<duckdb::shared_ptr<duckdb::MetaPipeline>>>::_Vector_impl_data" = type { ptr, ptr, ptr }
%"class.std::unordered_set" = type { %"class.std::_Hashtable.114" }
%"class.std::_Hashtable.114" = type { ptr, i64, %"struct.std::__detail::_Hash_node_base", i64, %"struct.std::__detail::_Prime_rehash_policy", ptr }
%"class.std::unordered_map.127" = type { %"class.std::_Hashtable.128" }
%"class.std::_Hashtable.128" = type { ptr, i64, %"struct.std::__detail::_Hash_node_base", i64, %"struct.std::__detail::_Prime_rehash_policy", ptr }

; Function Attrs: mustprogress nounwind uwtable
define void @_ZN6duckdb12MetaPipeline20AssignNextBatchIndexERNS_8PipelineE(ptr noundef nonnull align 8 dereferenceable(280) %0, ptr noundef nonnull align 8 dereferenceable(224) %1) #1 align 2 {
  %3 = alloca ptr, align 8
  %4 = alloca ptr, align 8
  store ptr %0, ptr %3, align 8, !tbaa !85
  store ptr %1, ptr %4, align 8, !tbaa !59
  %5 = load ptr, ptr %3, align 8
  %6 = getelementptr inbounds nuw %"class.duckdb::MetaPipeline", ptr %5, i32 0, i32 10
  %7 = load i64, ptr %6, align 8, !tbaa !123
  %8 = add i64 %7, 1
  store i64 %8, ptr %6, align 8, !tbaa !123
  %9 = mul i64 %7, 10000000000000
  %10 = load ptr, ptr %4, align 8, !tbaa !59
  %11 = getelementptr inbounds nuw %"class.duckdb::Pipeline", ptr %10, i32 0, i32 10
  store i64 %9, ptr %11, align 8, !tbaa !173
  ret void
}