; Function Attrs: mustprogress nofree norecurse nosync nounwind willreturn memory(argmem: readwrite) uwtable
define void @_ZN6duckdb12MetaPipeline20AssignNextBatchIndexERNS_8PipelineE(ptr noundef nonnull align 8 captures(none) dereferenceable(280) %0, ptr noundef nonnull writeonly align 8 captures(none) dereferenceable(224) initializes((128, 136)) %1) local_unnamed_addr #8 align 2 {
  %3 = getelementptr inbounds nuw i8, ptr %0, i64 160
  %4 = load i64, ptr %3, align 8, !tbaa !129
  %5 = add i64 %4, 1
  store i64 %5, ptr %3, align 8, !tbaa !129
  %6 = mul i64 %4, 10000000000000
  %7 = getelementptr inbounds nuw i8, ptr %1, i64 128
  store i64 %6, ptr %7, align 8, !tbaa !130
  ret void
}